; Function Attrs: nounwind uwtable
define dso_local noundef ptr @alloc_commit_node(ptr noundef readonly captures(none) %0) local_unnamed_addr #0 {
  %2 = getelementptr inbounds nuw i8, ptr %0, i64 24
  %3 = load ptr, ptr %2, align 8, !tbaa !14
  %4 = getelementptr inbounds nuw i8, ptr %3, i64 40
  %5 = load ptr, ptr %4, align 8, !tbaa !55
  %6 = load i32, ptr %5, align 8, !tbaa !42
  %.not.i = icmp eq i32 %6, 0
  br i1 %.not.i, label %7, label %alloc_node.exit

7:                                                ; preds = %1
  store i32 1024, ptr %5, align 8, !tbaa !42
  %8 = tail call ptr @xmalloc(i64 noundef 73728) #6
  %9 = getelementptr inbounds nuw i8, ptr %5, i64 8
  store ptr %8, ptr %9, align 8, !tbaa !43
  %10 = getelementptr inbounds nuw i8, ptr %5, i64 24
  %11 = load i32, ptr %10, align 8, !tbaa !4
  %12 = getelementptr inbounds nuw i8, ptr %5, i64 28
  %13 = load i32, ptr %12, align 4, !tbaa !44
  %.not27.i = icmp slt i32 %11, %13
  br i1 %.not27.i, label %._crit_edge.i, label %14

._crit_edge.i:                                    ; preds = %7
  %.phi.trans.insert.i = getelementptr inbounds nuw i8, ptr %5, i64 16
  %.pre29.i = load ptr, ptr %.phi.trans.insert.i, align 8, !tbaa !10
  br label %26

14:                                               ; preds = %7
  %15 = add nsw i32 %11, 1
  %16 = mul i32 %13, 3
  %17 = add i32 %16, 48
  %18 = sdiv i32 %17, 2
  %.not28.i = icmp sgt i32 %18, %11
  %..i = select i1 %.not28.i, i32 %18, i32 %15
  store i32 %..i, ptr %12, align 4, !tbaa !44
  %19 = sext i32 %..i to i64
  %20 = icmp slt i32 %..i, 0
  br i1 %20, label %21, label %st_mult.exit.i

21:                                               ; preds = %14
  tail call void (ptr, ...) @die(ptr noundef nonnull @.str, i64 noundef 8, i64 noundef range(i64 -2147483648, 2147483648) %19) #7
  unreachable

st_mult.exit.i:                                   ; preds = %14
  %22 = getelementptr inbounds nuw i8, ptr %5, i64 16
  %23 = load ptr, ptr %22, align 8, !tbaa !10
  %24 = shl nuw nsw i64 %19, 3
  %25 = tail call ptr @xrealloc(ptr noundef %23, i64 noundef %24) #6
  store ptr %25, ptr %22, align 8, !tbaa !10
  %.pre.i = load ptr, ptr %9, align 8, !tbaa !43
  %.pre30.i = load i32, ptr %10, align 8, !tbaa !4
  br label %26

26:                                               ; preds = %st_mult.exit.i, %._crit_edge.i
  %27 = phi i32 [ %.pre30.i, %st_mult.exit.i ], [ %11, %._crit_edge.i ]
  %28 = phi ptr [ %25, %st_mult.exit.i ], [ %.pre29.i, %._crit_edge.i ]
  %29 = phi ptr [ %.pre.i, %st_mult.exit.i ], [ %8, %._crit_edge.i ]
  %30 = add nsw i32 %27, 1
  store i32 %30, ptr %10, align 8, !tbaa !4
  %31 = sext i32 %27 to i64
  %32 = getelementptr inbounds ptr, ptr %28, i64 %31
  store ptr %29, ptr %32, align 8, !tbaa !11
  %.pre31.i = load i32, ptr %5, align 8, !tbaa !42
  br label %alloc_node.exit

alloc_node.exit:                                  ; preds = %1, %26
  %33 = phi i32 [ %.pre31.i, %26 ], [ %6, %1 ]
  %34 = add nsw i32 %33, -1
  store i32 %34, ptr %5, align 8, !tbaa !42
  %35 = getelementptr inbounds nuw i8, ptr %5, i64 8
  %36 = load ptr, ptr %35, align 8, !tbaa !43
  %37 = getelementptr inbounds nuw i8, ptr %36, i64 72
  store ptr %37, ptr %35, align 8, !tbaa !43
  %38 = getelementptr inbounds nuw i8, ptr %36, i64 4
  tail call void @llvm.memset.p0.i64(ptr noundef nonnull align 1 dereferenceable(72) %38, i8 0, i64 68, i1 false)
  store i32 2, ptr %36, align 8
  %39 = load i32, ptr @alloc_commit_index.parsed_commits_count, align 4, !tbaa !48
  %40 = add i32 %39, 1
  store i32 %40, ptr @alloc_commit_index.parsed_commits_count, align 4, !tbaa !48
  %41 = getelementptr inbounds nuw i8, ptr %36, i64 64
  store i32 %39, ptr %41, align 8, !tbaa !49
  ret ptr %36
}